; Function Attrs: mustprogress uwtable
define hidden noundef zeroext i1 @_ZN6google8protobuf8internal12ExtensionSet10ParseFieldEjPNS0_2io16CodedInputStreamEPKNS0_11MessageLiteE(ptr noundef nonnull align 8 captures(none) dereferenceable(24) %0, i32 noundef %1, ptr noundef %2, ptr noundef %3) local_unnamed_addr #8 align 2 personality ptr @__gxx_personality_v0 {
.noexc:
  %4 = alloca i8, align 1
  %5 = alloca %"struct.google::protobuf::internal::ExtensionInfo", align 8
  %6 = alloca %"class.google::protobuf::internal::FieldSkipper", align 8
  %7 = alloca %"class.google::protobuf::internal::GeneratedExtensionFinder", align 8
  call void @llvm.lifetime.start.p0(i64 8, ptr nonnull %6) #30
  store ptr getelementptr inbounds nuw inrange(-16, 40) (i8, ptr @_ZTVN6google8protobuf8internal12FieldSkipperE, i64 16), ptr %6, align 8, !tbaa !54
  call void @llvm.lifetime.start.p0(i64 16, ptr nonnull %7) #30
  store ptr getelementptr inbounds nuw inrange(-16, 24) (i8, ptr @_ZTVN6google8protobuf8internal24GeneratedExtensionFinderE, i64 16), ptr %7, align 8, !tbaa !54
  %8 = getelementptr inbounds nuw i8, ptr %7, i64 8
  store ptr %3, ptr %8, align 8, !tbaa !3
  call void @llvm.lifetime.start.p0(i64 1, ptr nonnull %4) #30
  call void @llvm.lifetime.start.p0(i64 40, ptr nonnull %5) #30
  %9 = getelementptr inbounds nuw i8, ptr %5, i64 16
  call void @llvm.memset.p0.i64(ptr noundef nonnull align 8 dereferenceable(40) %5, i8 0, i64 15, i1 false)
  call void @llvm.memset.p0.i64(ptr noundef nonnull align 8 dereferenceable(24) %9, i8 0, i64 24, i1 false)
  %10 = lshr i32 %1, 3
  %11 = and i32 %1, 7
  %12 = call noundef zeroext i1 @_ZNK6google8protobuf8internal12ExtensionSet32FindExtensionInfoFromFieldNumberEiiPNS1_15ExtensionFinderEPNS1_13ExtensionInfoEPb(ptr nonnull readnone align 8 poison, i32 noundef %11, i32 noundef %10, ptr noundef nonnull %7, ptr noundef nonnull %5, ptr noundef nonnull %4)
  br i1 %12, label %16, label %13

13:                                               ; preds = %.noexc
  %14 = load ptr, ptr getelementptr inbounds nuw inrange(-32, 24) (i8, ptr @_ZTVN6google8protobuf8internal12FieldSkipperE, i64 32), align 8
  %15 = call noundef zeroext i1 %14(ptr noundef nonnull align 8 dereferenceable(8) %6, ptr noundef %2, i32 noundef %1)
  br label %20

16:                                               ; preds = %.noexc
  %17 = load i8, ptr %4, align 1, !tbaa !39, !range !104, !noundef !80
  %18 = trunc nuw i8 %17 to i1
  %19 = call noundef zeroext i1 @_ZN6google8protobuf8internal12ExtensionSet27ParseFieldWithExtensionInfoEibRKNS1_13ExtensionInfoEPNS0_2io16CodedInputStreamEPNS1_12FieldSkipperE(ptr noundef nonnull align 8 dereferenceable(24) %0, i32 noundef %10, i1 noundef zeroext %18, ptr noundef nonnull align 8 dereferenceable(40) %5, ptr noundef %2, ptr noundef nonnull %6)
  br label %20

20:                                               ; preds = %13, %16
  %.0.i = phi i1 [ %15, %13 ], [ %19, %16 ]
  call void @llvm.lifetime.end.p0(i64 40, ptr nonnull %5) #30
  call void @llvm.lifetime.end.p0(i64 1, ptr nonnull %4) #30
  call void @llvm.lifetime.end.p0(i64 16, ptr nonnull %7) #30
  call void @llvm.lifetime.end.p0(i64 8, ptr nonnull %6) #30
  ret i1 %.0.i
}